target datalayout = "e-m:e-p270:32:32-p271:32:32-p272:64:64-i64:64-i128:128-f80:128-n8:16:32:64-S128"
target triple = "x86_64-pc-linux-gnu"

@.str.3 = private unnamed_addr constant [3 x i8] c"EC\00", align 1
@.str.15 = private unnamed_addr constant [3 x i8] c"DH\00", align 1

; Function Attrs: nounwind uwtable
define i32 @tls13_set_encoded_pub_key(ptr noundef %0, ptr noundef %1, i64 noundef %2) #1 {
  %4 = alloca i32, align 4
  %5 = alloca ptr, align 8
  %6 = alloca ptr, align 8
  %7 = alloca i64, align 8
  %8 = alloca i32, align 4
  %9 = alloca i32, align 4
  store ptr %0, ptr %5, align 8, !tbaa !202
  store ptr %1, ptr %6, align 8, !tbaa !172
  store i64 %2, ptr %7, align 8, !tbaa !3
  %10 = load ptr, ptr %5, align 8, !tbaa !202
  %11 = call i32 @EVP_PKEY_is_a(ptr noundef %10, ptr noundef @.str.15)
  %12 = icmp ne i32 %11, 0
  br i1 %12, label %13, label %29

13:                                               ; preds = %3
  call void @llvm.lifetime.start.p0(i64 4, ptr %8) #8
  %14 = load ptr, ptr %5, align 8, !tbaa !202
  %15 = call i32 @EVP_PKEY_get_bits(ptr noundef %14)
  store i32 %15, ptr %8, align 4, !tbaa !128
  %16 = load i32, ptr %8, align 4, !tbaa !128
  %17 = icmp sle i32 %16, 0
  br i1 %17, label %24, label %18

18:                                               ; preds = %13
  %19 = load i64, ptr %7, align 8, !tbaa !3
  %20 = load i32, ptr %8, align 4, !tbaa !128
  %21 = sext i32 %20 to i64
  %22 = udiv i64 %21, 8
  %23 = icmp ne i64 %19, %22
  br i1 %23, label %24, label %25

24:                                               ; preds = %18, %13
  store i32 0, ptr %4, align 4
  store i32 1, ptr %9, align 4
  br label %26

25:                                               ; preds = %18
  store i32 0, ptr %9, align 4
  br label %26

26:                                               ; preds = %25, %24
  call void @llvm.lifetime.end.p0(i64 4, ptr %8) #8
  %27 = load i32, ptr %9, align 4
  switch i32 %27, label %52 [
    i32 0, label %28
    i32 1, label %50
  ]

28:                                               ; preds = %26
  br label %45

29:                                               ; preds = %3
  %30 = load ptr, ptr %5, align 8, !tbaa !202
  %31 = call i32 @EVP_PKEY_is_a(ptr noundef %30, ptr noundef @.str.3)
  %32 = icmp ne i32 %31, 0
  br i1 %32, label %33, label %44

33:                                               ; preds = %29
  %34 = load i64, ptr %7, align 8, !tbaa !3
  %35 = icmp ult i64 %34, 3
  br i1 %35, label %42, label %36

36:                                               ; preds = %33
  %37 = load ptr, ptr %6, align 8, !tbaa !172
  %38 = getelementptr inbounds i8, ptr %37, i64 0
  %39 = load i8, ptr %38, align 1, !tbaa !161
  %40 = zext i8 %39 to i32
  %41 = icmp ne i32 %40, 4
  br i1 %41, label %42, label %43

42:                                               ; preds = %36, %33
  store i32 0, ptr %4, align 4
  br label %50

43:                                               ; preds = %36
  br label %44

44:                                               ; preds = %43, %29
  br label %45

45:                                               ; preds = %44, %28
  %46 = load ptr, ptr %5, align 8, !tbaa !202
  %47 = load ptr, ptr %6, align 8, !tbaa !172
  %48 = load i64, ptr %7, align 8, !tbaa !3
  %49 = call i32 @EVP_PKEY_set1_encoded_public_key(ptr noundef %46, ptr noundef %47, i64 noundef %48)
  store i32 %49, ptr %4, align 4
  br label %50

50:                                               ; preds = %45, %42, %26
  %51 = load i32, ptr %4, align 4
  ret i32 %51

52:                                               ; preds = %26
  unreachable
}