; Function Attrs: nounwind uwtable
define i32 @tls13_set_encoded_pub_key(ptr noundef %0, ptr noundef %1, i64 noundef %2) local_unnamed_addr #2 {
  %4 = tail call i32 @EVP_PKEY_is_a(ptr noundef %0, ptr noundef nonnull @.str.15) #14
  %.not = icmp eq i32 %4, 0
  br i1 %.not, label %10, label %5

5:                                                ; preds = %3
  %6 = tail call i32 @EVP_PKEY_get_bits(ptr noundef %0) #14
  %7 = icmp sgt i32 %6, 0
  %8 = lshr i32 %6, 3
  %9 = zext nneg i32 %8 to i64
  %.not16 = icmp eq i64 %2, %9
  %or.cond = select i1 %7, i1 %.not16, i1 false
  br i1 %or.cond, label %16, label %18

10:                                               ; preds = %3
  %11 = tail call i32 @EVP_PKEY_is_a(ptr noundef %0, ptr noundef nonnull @.str.3) #14
  %.not14 = icmp eq i32 %11, 0
  br i1 %.not14, label %16, label %12

12:                                               ; preds = %10
  %13 = icmp ult i64 %2, 3
  br i1 %13, label %18, label %14

14:                                               ; preds = %12
  %15 = load i8, ptr %1, align 1, !tbaa !141
  %.not15 = icmp eq i8 %15, 4
  br i1 %.not15, label %16, label %18

16:                                               ; preds = %5, %10, %14
  %17 = tail call i32 @EVP_PKEY_set1_encoded_public_key(ptr noundef %0, ptr noundef %1, i64 noundef %2) #14
  br label %18

18:                                               ; preds = %12, %14, %5, %16
  %.1 = phi i32 [ 0, %5 ], [ %17, %16 ], [ 0, %14 ], [ 0, %12 ]
  ret i32 %.1
}